; Function Attrs: mustprogress nounwind uwtable
define hidden noundef ptr @_ZNK8AddPNode5ValueEP8PhaseGVN(ptr nocapture noundef nonnull readonly align 8 dereferenceable(52) %0, ptr nocapture noundef readonly %1) unnamed_addr #0 align 2 {
  %3 = getelementptr inbounds i8, ptr %0, i64 8
  %4 = load ptr, ptr %3, align 8
  %5 = getelementptr inbounds i8, ptr %4, i64 16
  %6 = load ptr, ptr %5, align 8
  %7 = getelementptr inbounds i8, ptr %1, i64 40
  %8 = load ptr, ptr %7, align 8
  %9 = getelementptr inbounds i8, ptr %6, i64 40
  %10 = load i32, ptr %9, align 8
  %11 = getelementptr inbounds i8, ptr %8, i64 16
  %12 = load ptr, ptr %11, align 8
  %13 = zext i32 %10 to i64
  %14 = getelementptr inbounds ptr, ptr %12, i64 %13
  %15 = load ptr, ptr %14, align 8
  %16 = getelementptr inbounds i8, ptr %4, i64 24
  %17 = load ptr, ptr %16, align 8
  %18 = getelementptr inbounds i8, ptr %17, i64 40
  %19 = load i32, ptr %18, align 8
  %20 = zext i32 %19 to i64
  %21 = getelementptr inbounds ptr, ptr %12, i64 %20
  %22 = load ptr, ptr %21, align 8
  %23 = load ptr, ptr @_ZN4Type3TOPE, align 8
  %24 = icmp eq ptr %15, %23
  %25 = icmp eq ptr %22, %23
  %or.cond = or i1 %24, %25
  br i1 %or.cond, label %40, label %26

26:                                               ; preds = %2
  %27 = getelementptr inbounds i8, ptr %15, i64 16
  %28 = load i32, ptr %27, align 8
  %29 = add i32 %28, -18
  %or.cond.i = icmp ult i32 %29, 9
  %30 = select i1 %or.cond.i, ptr %15, ptr null
  %31 = getelementptr inbounds i8, ptr %22, i64 24
  %32 = load i64, ptr %31, align 8
  %33 = getelementptr inbounds i8, ptr %22, i64 32
  %34 = load i64, ptr %33, align 8
  %35 = icmp eq i64 %32, %34
  %spec.select = select i1 %35, i64 %32, i64 -2000000001
  %36 = load ptr, ptr %30, align 8
  %37 = getelementptr inbounds i8, ptr %36, i64 192
  %38 = load ptr, ptr %37, align 8
  %39 = tail call noundef ptr %38(ptr noundef nonnull align 8 dereferenceable(44) %30, i64 noundef %spec.select) #7
  br label %40

40:                                               ; preds = %2, %26
  %.011 = phi ptr [ %39, %26 ], [ %23, %2 ]
  ret ptr %.011
}